target datalayout = "e-m:e-p270:32:32-p271:32:32-p272:64:64-i64:64-i128:128-f80:128-n8:16:32:64-S128"
target triple = "x86_64-pc-linux-gnu"

%"class.std::vector" = type { %"struct.std::_Vector_base" }
%"struct.std::_Vector_base" = type { %"struct.std::_Vector_base<long, std::allocator<long>>::_Vector_impl" }
%"struct.std::_Vector_base<long, std::allocator<long>>::_Vector_impl" = type { %"struct.std::_Vector_base<long, std::allocator<long>>::_Vector_impl_data" }
%"struct.std::_Vector_base<long, std::allocator<long>>::_Vector_impl_data" = type { ptr, ptr, ptr }
%"struct.faiss::Index" = type <{ ptr, i32, [4 x i8], i64, i8, i8, [2 x i8], i32, float, [4 x i8] }>
%"struct.faiss::IndexIVF" = type <{ %"struct.faiss::Index.base", [4 x i8], %"struct.faiss::IndexIVFInterface", ptr, i8, [7 x i8], i64, i32, i32, %"struct.faiss::DirectMap", i8, [7 x i8] }>
%"struct.faiss::Index.base" = type <{ ptr, i32, [4 x i8], i64, i8, i8, [2 x i8], i32, float }>
%"struct.faiss::IndexIVFInterface" = type { ptr, %"struct.faiss::Level1Quantizer", i64, i64 }
%"struct.faiss::Level1Quantizer" = type { ptr, i64, i8, i8, [6 x i8], %"struct.faiss::ClusteringParameters", ptr }
%"struct.faiss::ClusteringParameters" = type <{ i32, i32, i8, i8, i8, i8, i8, [3 x i8], i32, i32, i32, [4 x i8], i64, i8, i8, [6 x i8] }>
%"struct.faiss::DirectMap" = type { i32, %"class.std::vector", %"class.std::unordered_map" }
%"class.std::unordered_map" = type { %"class.std::_Hashtable" }
%"class.std::_Hashtable" = type { ptr, i64, %"struct.std::__detail::_Hash_node_base", i64, %"struct.std::__detail::_Prime_rehash_policy", ptr }
%"struct.std::__detail::_Hash_node_base" = type { ptr }
%"struct.std::__detail::_Prime_rehash_policy" = type { float, i64 }

; Function Attrs: mustprogress uwtable
define noundef i64 @_ZN5faiss8IndexIVF10remove_idsERKNS_10IDSelectorE(ptr noundef nonnull align 8 dereferenceable(265) %0, ptr noundef nonnull align 8 dereferenceable(8) %1) unnamed_addr #0 align 2 {
  %3 = alloca ptr, align 8
  %4 = alloca ptr, align 8
  %5 = alloca i64, align 8
  store ptr %0, ptr %3, align 8, !tbaa !45
  store ptr %1, ptr %4, align 8, !tbaa !101
  %6 = load ptr, ptr %3, align 8
  call void @llvm.lifetime.start.p0(i64 8, ptr %5) #20
  %7 = getelementptr inbounds nuw %"struct.faiss::IndexIVF", ptr %6, i32 0, i32 9
  %8 = load ptr, ptr %4, align 8, !tbaa !101
  %9 = getelementptr inbounds nuw %"struct.faiss::IndexIVF", ptr %6, i32 0, i32 3
  %10 = load ptr, ptr %9, align 8, !tbaa !98
  %11 = call noundef i64 @_ZN5faiss9DirectMap10remove_idsERKNS_10IDSelectorEPNS_13InvertedListsE(ptr noundef nonnull align 8 dereferenceable(88) %7, ptr noundef nonnull align 8 dereferenceable(8) %8, ptr noundef %10)
  store i64 %11, ptr %5, align 8, !tbaa !9
  %12 = load i64, ptr %5, align 8, !tbaa !9
  %13 = getelementptr inbounds nuw %"struct.faiss::Index", ptr %6, i32 0, i32 3
  %14 = load i64, ptr %13, align 8, !tbaa !100
  %15 = sub i64 %14, %12
  store i64 %15, ptr %13, align 8, !tbaa !100
  %16 = load i64, ptr %5, align 8, !tbaa !9
  call void @llvm.lifetime.end.p0(i64 8, ptr %5) #20
  ret i64 %16
}