; Function Attrs: mustprogress uwtable
define noundef i64 @_ZN5faiss8IndexIVF10remove_idsERKNS_10IDSelectorE(ptr noundef nonnull align 8 dereferenceable(265) %0, ptr noundef nonnull align 8 dereferenceable(8) %1) unnamed_addr #0 align 2 {
  %3 = getelementptr inbounds nuw i8, ptr %0, i64 176
  %4 = getelementptr inbounds nuw i8, ptr %0, i64 144
  %5 = load ptr, ptr %4, align 8, !tbaa !97
  %6 = tail call noundef i64 @_ZN5faiss9DirectMap10remove_idsERKNS_10IDSelectorEPNS_13InvertedListsE(ptr noundef nonnull align 8 dereferenceable(88) %3, ptr noundef nonnull align 8 dereferenceable(8) %1, ptr noundef %5)
  %7 = getelementptr inbounds nuw i8, ptr %0, i64 16
  %8 = load i64, ptr %7, align 8, !tbaa !98
  %9 = sub i64 %8, %6
  store i64 %9, ptr %7, align 8, !tbaa !98
  ret i64 %6
}